; Function Attrs: nounwind uwtable
define ptr @nghttp2_hd_inflate_get_table_entry(ptr noundef readonly captures(none) %0, i64 noundef %1) local_unnamed_addr #0 {
  %3 = icmp eq i64 %1, 0
  br i1 %3, label %hd_get_table_entry.exit, label %4

4:                                                ; preds = %2
  %5 = add i64 %1, -1
  %6 = getelementptr inbounds nuw i8, ptr %0, i64 24
  %7 = load i64, ptr %6, align 8, !tbaa !71
  %8 = add i64 %7, 61
  %9 = icmp ult i64 %5, %8
  br i1 %9, label %10, label %hd_get_table_entry.exit

10:                                               ; preds = %4
  %11 = icmp ugt i64 %5, 60
  br i1 %11, label %12, label %26

12:                                               ; preds = %10
  %13 = add i64 %1, -62
  %14 = icmp ult i64 %13, %7
  br i1 %14, label %hd_ringbuf_get.exit.i.i, label %15

15:                                               ; preds = %12
  tail call void @__assert_fail(ptr noundef nonnull @.str.4, ptr noundef nonnull @.str.1, i32 noundef 622, ptr noundef nonnull @__PRETTY_FUNCTION__.hd_ringbuf_get) #13
  unreachable

hd_ringbuf_get.exit.i.i:                          ; preds = %12
  %16 = load ptr, ptr %0, align 8, !tbaa !40
  %17 = getelementptr inbounds nuw i8, ptr %0, i64 16
  %18 = load i64, ptr %17, align 8, !tbaa !63
  %19 = add i64 %18, %13
  %20 = getelementptr inbounds nuw i8, ptr %0, i64 8
  %21 = load i64, ptr %20, align 8, !tbaa !41
  %22 = and i64 %19, %21
  %23 = getelementptr inbounds nuw ptr, ptr %16, i64 %22
  %24 = load ptr, ptr %23, align 8, !tbaa !64
  %25 = getelementptr inbounds nuw i8, ptr %24, i64 24
  br label %hd_get_table_entry.exit

26:                                               ; preds = %10
  %27 = getelementptr inbounds nuw [61 x %struct.nghttp2_hd_static_entry], ptr @static_table, i64 0, i64 %5, i32 2
  br label %hd_get_table_entry.exit

hd_get_table_entry.exit:                          ; preds = %2, %4, %hd_ringbuf_get.exit.i.i, %26
  %.0.i = phi ptr [ null, %2 ], [ null, %4 ], [ %25, %hd_ringbuf_get.exit.i.i ], [ %27, %26 ]
  ret ptr %.0.i
}